target datalayout = "e-m:e-p270:32:32-p271:32:32-p272:64:64-i64:64-i128:128-f80:128-n8:16:32:64-S128"
target triple = "x86_64-pc-linux-gnu"

%struct.DECODER_CACHE_ENTRY = type { ptr, ptr, ptr, i32, ptr, ptr }

; Function Attrs: nounwind uwtable
define internal i64 @decoder_cache_entry_hash(ptr noundef %0) #0 {
  %2 = alloca ptr, align 8
  %3 = alloca i64, align 8
  store ptr %0, ptr %2, align 8, !tbaa !14
  call void @llvm.lifetime.start.p0(i64 8, ptr %3) #7
  store i64 17, ptr %3, align 8, !tbaa !10
  %4 = load i64, ptr %3, align 8, !tbaa !10
  %5 = mul i64 %4, 23
  %6 = load ptr, ptr %2, align 8, !tbaa !14
  %7 = getelementptr inbounds nuw %struct.DECODER_CACHE_ENTRY, ptr %6, i32 0, i32 4
  %8 = load ptr, ptr %7, align 8, !tbaa !21
  %9 = icmp eq ptr %8, null
  br i1 %9, label %10, label %11

10:                                               ; preds = %1
  br label %16

11:                                               ; preds = %1
  %12 = load ptr, ptr %2, align 8, !tbaa !14
  %13 = getelementptr inbounds nuw %struct.DECODER_CACHE_ENTRY, ptr %12, i32 0, i32 4
  %14 = load ptr, ptr %13, align 8, !tbaa !21
  %15 = call i64 @ossl_lh_strcasehash(ptr noundef %14)
  br label %16

16:                                               ; preds = %11, %10
  %17 = phi i64 [ 0, %10 ], [ %15, %11 ]
  %18 = add i64 %5, %17
  store i64 %18, ptr %3, align 8, !tbaa !10
  %19 = load i64, ptr %3, align 8, !tbaa !10
  %20 = mul i64 %19, 23
  %21 = load ptr, ptr %2, align 8, !tbaa !14
  %22 = getelementptr inbounds nuw %struct.DECODER_CACHE_ENTRY, ptr %21, i32 0, i32 1
  %23 = load ptr, ptr %22, align 8, !tbaa !24
  %24 = icmp eq ptr %23, null
  br i1 %24, label %25, label %26

25:                                               ; preds = %16
  br label %31

26:                                               ; preds = %16
  %27 = load ptr, ptr %2, align 8, !tbaa !14
  %28 = getelementptr inbounds nuw %struct.DECODER_CACHE_ENTRY, ptr %27, i32 0, i32 1
  %29 = load ptr, ptr %28, align 8, !tbaa !24
  %30 = call i64 @ossl_lh_strcasehash(ptr noundef %29)
  br label %31

31:                                               ; preds = %26, %25
  %32 = phi i64 [ 0, %25 ], [ %30, %26 ]
  %33 = add i64 %20, %32
  store i64 %33, ptr %3, align 8, !tbaa !10
  %34 = load i64, ptr %3, align 8, !tbaa !10
  %35 = mul i64 %34, 23
  %36 = load ptr, ptr %2, align 8, !tbaa !14
  %37 = getelementptr inbounds nuw %struct.DECODER_CACHE_ENTRY, ptr %36, i32 0, i32 0
  %38 = load ptr, ptr %37, align 8, !tbaa !25
  %39 = icmp eq ptr %38, null
  br i1 %39, label %40, label %41

40:                                               ; preds = %31
  br label %46

41:                                               ; preds = %31
  %42 = load ptr, ptr %2, align 8, !tbaa !14
  %43 = getelementptr inbounds nuw %struct.DECODER_CACHE_ENTRY, ptr %42, i32 0, i32 0
  %44 = load ptr, ptr %43, align 8, !tbaa !25
  %45 = call i64 @ossl_lh_strcasehash(ptr noundef %44)
  br label %46

46:                                               ; preds = %41, %40
  %47 = phi i64 [ 0, %40 ], [ %45, %41 ]
  %48 = add i64 %35, %47
  store i64 %48, ptr %3, align 8, !tbaa !10
  %49 = load i64, ptr %3, align 8, !tbaa !10
  %50 = mul i64 %49, 23
  %51 = load ptr, ptr %2, align 8, !tbaa !14
  %52 = getelementptr inbounds nuw %struct.DECODER_CACHE_ENTRY, ptr %51, i32 0, i32 2
  %53 = load ptr, ptr %52, align 8, !tbaa !26
  %54 = icmp eq ptr %53, null
  br i1 %54, label %55, label %56

55:                                               ; preds = %46
  br label %61

56:                                               ; preds = %46
  %57 = load ptr, ptr %2, align 8, !tbaa !14
  %58 = getelementptr inbounds nuw %struct.DECODER_CACHE_ENTRY, ptr %57, i32 0, i32 2
  %59 = load ptr, ptr %58, align 8, !tbaa !26
  %60 = call i64 @ossl_lh_strcasehash(ptr noundef %59)
  br label %61

61:                                               ; preds = %56, %55
  %62 = phi i64 [ 0, %55 ], [ %60, %56 ]
  %63 = add i64 %50, %62
  store i64 %63, ptr %3, align 8, !tbaa !10
  %64 = load ptr, ptr %2, align 8, !tbaa !14
  %65 = getelementptr inbounds nuw %struct.DECODER_CACHE_ENTRY, ptr %64, i32 0, i32 3
  %66 = load i32, ptr %65, align 8, !tbaa !27
  %67 = sext i32 %66 to i64
  %68 = load i64, ptr %3, align 8, !tbaa !10
  %69 = xor i64 %68, %67
  store i64 %69, ptr %3, align 8, !tbaa !10
  %70 = load i64, ptr %3, align 8, !tbaa !10
  call void @llvm.lifetime.end.p0(i64 8, ptr %3) #7
  ret i64 %70
}