; Function Attrs: nounwind uwtable
define internal i64 @decoder_cache_entry_hash(ptr noundef readonly captures(none) %0) #0 {
  %2 = getelementptr inbounds nuw i8, ptr %0, i64 32
  %3 = load ptr, ptr %2, align 8, !tbaa !10
  %4 = icmp eq ptr %3, null
  br i1 %4, label %9, label %5

5:                                                ; preds = %1
  %6 = tail call i64 @ossl_lh_strcasehash(ptr noundef nonnull %3) #7
  %7 = mul i64 %6, 23
  %8 = add i64 %7, 8993
  br label %9

9:                                                ; preds = %1, %5
  %10 = phi i64 [ %8, %5 ], [ 8993, %1 ]
  %11 = getelementptr inbounds nuw i8, ptr %0, i64 8
  %12 = load ptr, ptr %11, align 8, !tbaa !15
  %13 = icmp eq ptr %12, null
  br i1 %13, label %16, label %14

14:                                               ; preds = %9
  %15 = tail call i64 @ossl_lh_strcasehash(ptr noundef nonnull %12) #7
  br label %16

16:                                               ; preds = %9, %14
  %17 = phi i64 [ %15, %14 ], [ 0, %9 ]
  %18 = load ptr, ptr %0, align 8, !tbaa !16
  %19 = icmp eq ptr %18, null
  br i1 %19, label %22, label %20

20:                                               ; preds = %16
  %21 = tail call i64 @ossl_lh_strcasehash(ptr noundef nonnull %18) #7
  br label %22

22:                                               ; preds = %16, %20
  %23 = phi i64 [ %21, %20 ], [ 0, %16 ]
  %24 = getelementptr inbounds nuw i8, ptr %0, i64 16
  %25 = load ptr, ptr %24, align 8, !tbaa !17
  %26 = icmp eq ptr %25, null
  br i1 %26, label %29, label %27

27:                                               ; preds = %22
  %28 = tail call i64 @ossl_lh_strcasehash(ptr noundef nonnull %25) #7
  br label %29

29:                                               ; preds = %22, %27
  %30 = phi i64 [ %28, %27 ], [ 0, %22 ]
  %31 = add i64 %17, %10
  %32 = mul i64 %31, 23
  %33 = add i64 %23, %32
  %34 = mul i64 %33, 23
  %35 = add i64 %30, %34
  %36 = getelementptr inbounds nuw i8, ptr %0, i64 24
  %37 = load i32, ptr %36, align 8, !tbaa !18
  %38 = sext i32 %37 to i64
  %39 = xor i64 %35, %38
  ret i64 %39
}